target datalayout = "e-m:e-p270:32:32-p271:32:32-p272:64:64-i64:64-i128:128-f80:128-n8:16:32:64-S128"
target triple = "x86_64-pc-linux-gnu"

@plugin_type = external constant [0 x i8], align 1
@.str.3 = private unnamed_addr constant [50 x i8] c"%s: %s: sched_setaffinity(%d,%zu,0x%s) failed: %m\00", align 1
@__func__.slurm_setaffinity = private unnamed_addr constant [18 x i8] c"slurm_setaffinity\00", align 1

; Function Attrs: nounwind uwtable
define dso_local i32 @slurm_setaffinity(i32 noundef %0, i64 noundef %1, ptr noundef %2) #0 {
  %4 = alloca i32, align 4
  %5 = alloca i64, align 8
  %6 = alloca ptr, align 8
  %7 = alloca i32, align 4
  %8 = alloca [257 x i8], align 16
  store i32 %0, ptr %4, align 4
  store i64 %1, ptr %5, align 8
  store ptr %2, ptr %6, align 8
  call void @llvm.lifetime.start.p0(i64 4, ptr %7) #6
  call void @llvm.lifetime.start.p0(i64 257, ptr %8) #6
  %9 = load i32, ptr %4, align 4
  %10 = load i64, ptr %5, align 8
  %11 = load ptr, ptr %6, align 8
  %12 = call i32 @sched_setaffinity(i32 noundef %9, i64 noundef %10, ptr noundef %11) #6
  store i32 %12, ptr %7, align 4
  %13 = load i32, ptr %7, align 4
  %14 = icmp ne i32 %13, 0
  br i1 %14, label %15, label %31

15:                                               ; preds = %3
  br label %16

16:                                               ; preds = %15
  br label %17

17:                                               ; preds = %16
  %18 = call i32 @slurm_get_log_level()
  %19 = icmp sge i32 %18, 4
  br i1 %19, label %20, label %26

20:                                               ; preds = %17
  %21 = load i32, ptr %4, align 4
  %22 = load i64, ptr %5, align 8
  %23 = load ptr, ptr %6, align 8
  %24 = getelementptr inbounds [257 x i8], ptr %8, i64 0, i64 0
  %25 = call ptr @task_cpuset_to_str(ptr noundef %23, ptr noundef %24)
  call void (i32, ptr, ...) @slurm_log_var(i32 noundef 4, ptr noundef @.str.3, ptr noundef @plugin_type, ptr noundef @__func__.slurm_setaffinity, i32 noundef %21, i64 noundef %22, ptr noundef %25)
  br label %26

26:                                               ; preds = %20, %17
  br label %27

27:                                               ; preds = %26
  br label %28

28:                                               ; preds = %27
  br label %29

29:                                               ; preds = %28
  br label %30

30:                                               ; preds = %29
  br label %31

31:                                               ; preds = %30, %3
  %32 = load i32, ptr %7, align 4
  call void @llvm.lifetime.end.p0(i64 257, ptr %8) #6
  call void @llvm.lifetime.end.p0(i64 4, ptr %7) #6
  ret i32 %32
}