; Function Attrs: nounwind uwtable
define dso_local i32 @slurm_setaffinity(i32 noundef %0, i64 noundef %1, ptr noundef %2) local_unnamed_addr #0 {
  %4 = alloca [257 x i8], align 16
  call void @llvm.lifetime.start.p0(i64 257, ptr nonnull %4) #7
  %5 = tail call i32 @sched_setaffinity(i32 noundef %0, i64 noundef %1, ptr noundef %2) #7
  %.not = icmp eq i32 %5, 0
  br i1 %.not, label %11, label %6

6:                                                ; preds = %3
  %7 = tail call i32 @slurm_get_log_level() #7
  %8 = icmp sgt i32 %7, 3
  br i1 %8, label %9, label %11

9:                                                ; preds = %6
  %10 = call ptr @task_cpuset_to_str(ptr noundef %2, ptr noundef nonnull %4) #7
  call void (i32, ptr, ...) @slurm_log_var(i32 noundef 4, ptr noundef nonnull @.str.3, ptr noundef nonnull @plugin_type, ptr noundef nonnull @__func__.slurm_setaffinity, i32 noundef %0, i64 noundef %1, ptr noundef %10) #7
  br label %11

11:                                               ; preds = %6, %9, %3
  call void @llvm.lifetime.end.p0(i64 257, ptr nonnull %4) #7
  ret i32 %5
}